#include <math.h>
#include <stdio.h>
#include <stdlib.h>
#include <string.h>

int f(int n)
{
    if(n==1||n==2)
    return 1;
    else return f(n-1)+f(n-2); 
}
int main()
{
    int i,n,a[10000],result[1000];
    scanf("%d",&n);
    for(i=0;i<n;i++)
    {
        scanf("%d",&a[i]);
        result[i]=f(a[i]);
        printf("%d\n",result[i]);
    }
}